; Function Attrs: nofree norecurse nosync nounwind memory(argmem: readwrite) uwtable
define internal void @nv20BEToUV_c(ptr noundef writeonly captures(none) %0, ptr noundef writeonly captures(none) %1, ptr readnone captures(none) %2, ptr noundef readonly captures(none) %3, ptr readnone captures(none) %4, i32 noundef %5, ptr readnone captures(none) %6, ptr readnone captures(none) %7) #1 {
  %9 = icmp sgt i32 %5, 0
  br i1 %9, label %.lr.ph.preheader, label %._crit_edge

.lr.ph.preheader:                                 ; preds = %8
  %wide.trip.count = zext nneg i32 %5 to i64
  br label %.lr.ph

.lr.ph:                                           ; preds = %.lr.ph.preheader, %.lr.ph
  %indvars.iv = phi i64 [ 0, %.lr.ph.preheader ], [ %indvars.iv.next, %.lr.ph ]
  %10 = shl nsw i64 %indvars.iv, 2
  %11 = getelementptr inbounds nuw i8, ptr %3, i64 %10
  %12 = load i16, ptr %11, align 1, !tbaa !34
  %13 = tail call i16 @llvm.bswap.i16(i16 %12)
  %14 = shl nuw nsw i64 %indvars.iv, 1
  %15 = getelementptr inbounds nuw i8, ptr %0, i64 %14
  store i16 %13, ptr %15, align 1, !tbaa !34
  %16 = getelementptr inbounds nuw i8, ptr %11, i64 2
  %17 = load i16, ptr %16, align 1, !tbaa !34
  %18 = tail call i16 @llvm.bswap.i16(i16 %17)
  %19 = getelementptr inbounds nuw i8, ptr %1, i64 %14
  store i16 %18, ptr %19, align 1, !tbaa !34
  %indvars.iv.next = add nuw nsw i64 %indvars.iv, 1
  %exitcond.not = icmp eq i64 %indvars.iv.next, %wide.trip.count
  br i1 %exitcond.not, label %._crit_edge, label %.lr.ph, !llvm.loop !66

._crit_edge:                                      ; preds = %.lr.ph, %8
  ret void
}